; ModuleID = '48/1191.c'
source_filename = "48/1191.c"
target datalayout = "e-m:e-p270:32:32-p271:32:32-p272:64:64-i64:64-f80:128-n8:16:32:64-S128"
target triple = "x86_64-pc-linux-gnu"

@.str = private unnamed_addr constant [5 x i8] c"%d%d\00", align 1
@.str.1 = private unnamed_addr constant [4 x i8] c"%d \00", align 1
@.str.2 = private unnamed_addr constant [4 x i8] c"%d\0A\00", align 1

; Function Attrs: noinline nounwind uwtable
define dso_local i32 @main() #0 {
  %1 = alloca i32, align 4
  %2 = alloca [100 x [100 x i32]], align 16
  %3 = alloca i32, align 4
  %4 = alloca i32, align 4
  %5 = alloca i32, align 4
  %6 = alloca [100 x [100 x i32]], align 16
  %7 = alloca i32, align 4
  %8 = alloca i32, align 4
  %9 = alloca i32, align 4
  %10 = alloca i32, align 4
  %11 = alloca i32, align 4
  %12 = alloca i32, align 4
  %13 = alloca i32, align 4
  %14 = alloca i32, align 4
  store i32 0, i32* %1, align 4
  %15 = bitcast [100 x [100 x i32]]* %2 to i8*
  call void @llvm.memset.p0i8.i64(i8* align 16 %15, i8 0, i64 40000, i1 false)
  %16 = call i32 (i8*, ...) @__isoc99_scanf(i8* getelementptr inbounds ([5 x i8], [5 x i8]* @.str, i64 0, i64 0), i32* %3, i32* %4)
  %17 = load i32, i32* %3, align 4
  %18 = getelementptr inbounds [100 x [100 x i32]], [100 x [100 x i32]]* %2, i64 0, i64 50
  %19 = getelementptr inbounds [100 x i32], [100 x i32]* %18, i64 0, i64 50
  store i32 %17, i32* %19, align 8
  store i32 0, i32* %5, align 4
  br label %20

20:                                               ; preds = %121, %0
  %21 = load i32, i32* %5, align 4
  %22 = load i32, i32* %4, align 4
  %23 = icmp slt i32 %21, %22
  br i1 %23, label %24, label %124

24:                                               ; preds = %20
  %25 = bitcast [100 x [100 x i32]]* %6 to i8*
  call void @llvm.memset.p0i8.i64(i8* align 16 %25, i8 0, i64 40000, i1 false)
  store i32 1, i32* %7, align 4
  br label %26

26:                                               ; preds = %88, %24
  %27 = load i32, i32* %7, align 4
  %28 = icmp slt i32 %27, 99
  br i1 %28, label %29, label %91

29:                                               ; preds = %26
  store i32 1, i32* %8, align 4
  br label %30

30:                                               ; preds = %84, %29
  %31 = load i32, i32* %8, align 4
  %32 = icmp slt i32 %31, 99
  br i1 %32, label %33, label %87

33:                                               ; preds = %30
  %34 = load i32, i32* %7, align 4
  %35 = sext i32 %34 to i64
  %36 = getelementptr inbounds [100 x [100 x i32]], [100 x [100 x i32]]* %2, i64 0, i64 %35
  %37 = load i32, i32* %8, align 4
  %38 = sext i32 %37 to i64
  %39 = getelementptr inbounds [100 x i32], [100 x i32]* %36, i64 0, i64 %38
  %40 = load i32, i32* %39, align 4
  %41 = load i32, i32* %7, align 4
  %42 = sext i32 %41 to i64
  %43 = getelementptr inbounds [100 x [100 x i32]], [100 x [100 x i32]]* %6, i64 0, i64 %42
  %44 = load i32, i32* %8, align 4
  %45 = sext i32 %44 to i64
  %46 = getelementptr inbounds [100 x i32], [100 x i32]* %43, i64 0, i64 %45
  %47 = load i32, i32* %46, align 4
  %48 = add nsw i32 %47, %40
  store i32 %48, i32* %46, align 4
  store i32 -1, i32* %9, align 4
  br label %49

49:                                               ; preds = %80, %33
  %50 = load i32, i32* %9, align 4
  %51 = icmp sle i32 %50, 1
  br i1 %51, label %52, label %83

52:                                               ; preds = %49
  store i32 -1, i32* %10, align 4
  br label %53

53:                                               ; preds = %76, %52
  %54 = load i32, i32* %10, align 4
  %55 = icmp sle i32 %54, 1
  br i1 %55, label %56, label %79

56:                                               ; preds = %53
  %57 = load i32, i32* %7, align 4
  %58 = sext i32 %57 to i64
  %59 = getelementptr inbounds [100 x [100 x i32]], [100 x [100 x i32]]* %2, i64 0, i64 %58
  %60 = load i32, i32* %8, align 4
  %61 = sext i32 %60 to i64
  %62 = getelementptr inbounds [100 x i32], [100 x i32]* %59, i64 0, i64 %61
  %63 = load i32, i32* %62, align 4
  %64 = load i32, i32* %7, align 4
  %65 = load i32, i32* %9, align 4
  %66 = add nsw i32 %64, %65
  %67 = sext i32 %66 to i64
  %68 = getelementptr inbounds [100 x [100 x i32]], [100 x [100 x i32]]* %6, i64 0, i64 %67
  %69 = load i32, i32* %8, align 4
  %70 = load i32, i32* %10, align 4
  %71 = add nsw i32 %69, %70
  %72 = sext i32 %71 to i64
  %73 = getelementptr inbounds [100 x i32], [100 x i32]* %68, i64 0, i64 %72
  %74 = load i32, i32* %73, align 4
  %75 = add nsw i32 %74, %63
  store i32 %75, i32* %73, align 4
  br label %76

76:                                               ; preds = %56
  %77 = load i32, i32* %10, align 4
  %78 = add nsw i32 %77, 1
  store i32 %78, i32* %10, align 4
  br label %53

79:                                               ; preds = %53
  br label %80

80:                                               ; preds = %79
  %81 = load i32, i32* %9, align 4
  %82 = add nsw i32 %81, 1
  store i32 %82, i32* %9, align 4
  br label %49

83:                                               ; preds = %49
  br label %84

84:                                               ; preds = %83
  %85 = load i32, i32* %8, align 4
  %86 = add nsw i32 %85, 1
  store i32 %86, i32* %8, align 4
  br label %30

87:                                               ; preds = %30
  br label %88

88:                                               ; preds = %87
  %89 = load i32, i32* %7, align 4
  %90 = add nsw i32 %89, 1
  store i32 %90, i32* %7, align 4
  br label %26

91:                                               ; preds = %26
  store i32 0, i32* %11, align 4
  br label %92

92:                                               ; preds = %117, %91
  %93 = load i32, i32* %11, align 4
  %94 = icmp slt i32 %93, 100
  br i1 %94, label %95, label %120

95:                                               ; preds = %92
  store i32 0, i32* %12, align 4
  br label %96

96:                                               ; preds = %113, %95
  %97 = load i32, i32* %12, align 4
  %98 = icmp slt i32 %97, 100
  br i1 %98, label %99, label %116

99:                                               ; preds = %96
  %100 = load i32, i32* %11, align 4
  %101 = sext i32 %100 to i64
  %102 = getelementptr inbounds [100 x [100 x i32]], [100 x [100 x i32]]* %6, i64 0, i64 %101
  %103 = load i32, i32* %12, align 4
  %104 = sext i32 %103 to i64
  %105 = getelementptr inbounds [100 x i32], [100 x i32]* %102, i64 0, i64 %104
  %106 = load i32, i32* %105, align 4
  %107 = load i32, i32* %11, align 4
  %108 = sext i32 %107 to i64
  %109 = getelementptr inbounds [100 x [100 x i32]], [100 x [100 x i32]]* %2, i64 0, i64 %108
  %110 = load i32, i32* %12, align 4
  %111 = sext i32 %110 to i64
  %112 = getelementptr inbounds [100 x i32], [100 x i32]* %109, i64 0, i64 %111
  store i32 %106, i32* %112, align 4
  br label %113

113:                                              ; preds = %99
  %114 = load i32, i32* %12, align 4
  %115 = add nsw i32 %114, 1
  store i32 %115, i32* %12, align 4
  br label %96

116:                                              ; preds = %96
  br label %117

117:                                              ; preds = %116
  %118 = load i32, i32* %11, align 4
  %119 = add nsw i32 %118, 1
  store i32 %119, i32* %11, align 4
  br label %92

120:                                              ; preds = %92
  br label %121

121:                                              ; preds = %120
  %122 = load i32, i32* %5, align 4
  %123 = add nsw i32 %122, 1
  store i32 %123, i32* %5, align 4
  br label %20

124:                                              ; preds = %20
  store i32 0, i32* %13, align 4
  br label %125

125:                                              ; preds = %151, %124
  %126 = load i32, i32* %13, align 4
  %127 = icmp slt i32 %126, 100
  br i1 %127, label %128, label %154

128:                                              ; preds = %125
  store i32 0, i32* %14, align 4
  br label %129

129:                                              ; preds = %141, %128
  %130 = load i32, i32* %14, align 4
  %131 = icmp slt i32 %130, 99
  br i1 %131, label %132, label %144

132:                                              ; preds = %129
  %133 = load i32, i32* %13, align 4
  %134 = sext i32 %133 to i64
  %135 = getelementptr inbounds [100 x [100 x i32]], [100 x [100 x i32]]* %2, i64 0, i64 %134
  %136 = load i32, i32* %14, align 4
  %137 = sext i32 %136 to i64
  %138 = getelementptr inbounds [100 x i32], [100 x i32]* %135, i64 0, i64 %137
  %139 = load i32, i32* %138, align 4
  %140 = call i32 (i8*, ...) @printf(i8* getelementptr inbounds ([4 x i8], [4 x i8]* @.str.1, i64 0, i64 0), i32 %139)
  br label %141

141:                                              ; preds = %132
  %142 = load i32, i32* %14, align 4
  %143 = add nsw i32 %142, 1
  store i32 %143, i32* %14, align 4
  br label %129

144:                                              ; preds = %129
  %145 = load i32, i32* %13, align 4
  %146 = sext i32 %145 to i64
  %147 = getelementptr inbounds [100 x [100 x i32]], [100 x [100 x i32]]* %2, i64 0, i64 %146
  %148 = getelementptr inbounds [100 x i32], [100 x i32]* %147, i64 0, i64 99
  %149 = load i32, i32* %148, align 4
  %150 = call i32 (i8*, ...) @printf(i8* getelementptr inbounds ([4 x i8], [4 x i8]* @.str.2, i64 0, i64 0), i32 %149)
  br label %151

151:                                              ; preds = %144
  %152 = load i32, i32* %13, align 4
  %153 = add nsw i32 %152, 1
  store i32 %153, i32* %13, align 4
  br label %125

154:                                              ; preds = %125
  %155 = load i32, i32* %1, align 4
  ret i32 %155
}

; Function Attrs: argmemonly nounwind willreturn
declare void @llvm.memset.p0i8.i64(i8* nocapture writeonly, i8, i64, i1 immarg) #1

declare dso_local i32 @__isoc99_scanf(i8*, ...) #2

declare dso_local i32 @printf(i8*, ...) #2


!llvm.module.flags = !{!0}
!llvm.ident = !{!1}

!0 = !{i32 1, !"wchar_size", i32 4}
!1 = !{!"clang version 10.0.0-4ubuntu1 "}
