; ModuleID = 'source-C-CXX/47/1191.c'
source_filename = "source-C-CXX/47/1191.c"
target datalayout = "e-m:e-p270:32:32-p271:32:32-p272:64:64-i64:64-f80:128-n8:16:32:64-S128"
target triple = "x86_64-pc-linux-gnu"

@.str = private unnamed_addr constant [5 x i8] c"%d%d\00", align 1
@.str.1 = private unnamed_addr constant [4 x i8] c"%d \00", align 1
@.str.2 = private unnamed_addr constant [4 x i8] c"%d\0A\00", align 1

; Function Attrs: nofree nounwind sspstrong uwtable
define dso_local i32 @main() local_unnamed_addr #0 {
  %1 = alloca [100 x [100 x i32]], align 16
  %2 = bitcast [100 x [100 x i32]]* %1 to i8*
  %3 = alloca i32, align 4
  %4 = alloca i32, align 4
  %5 = alloca [100 x [100 x i32]], align 16
  %6 = bitcast [100 x [100 x i32]]* %5 to i8*
  call void @llvm.lifetime.start.p0i8(i64 40000, i8* nonnull %2) #5
  call void @llvm.memset.p0i8.i64(i8* noundef nonnull align 16 dereferenceable(40000) %2, i8 0, i64 40000, i1 false)
  %7 = bitcast i32* %3 to i8*
  call void @llvm.lifetime.start.p0i8(i64 4, i8* nonnull %7) #5
  %8 = bitcast i32* %4 to i8*
  call void @llvm.lifetime.start.p0i8(i64 4, i8* nonnull %8) #5
  %9 = call i32 (i8*, ...) @__isoc99_scanf(i8* getelementptr inbounds ([5 x i8], [5 x i8]* @.str, i64 0, i64 0), i32* nonnull %3, i32* nonnull %4)
  %10 = load i32, i32* %3, align 4, !tbaa !5
  %11 = getelementptr inbounds [100 x [100 x i32]], [100 x [100 x i32]]* %1, i64 0, i64 50, i64 50
  store i32 %10, i32* %11, align 8, !tbaa !5
  %12 = load i32, i32* %4, align 4, !tbaa !5
  %13 = icmp sgt i32 %12, 0
  br i1 %13, label %15, label %14

14:                                               ; preds = %23, %0
  br label %62

15:                                               ; preds = %0, %23
  %16 = phi i32 [ %24, %23 ], [ 0, %0 ]
  call void @llvm.lifetime.start.p0i8(i64 40000, i8* nonnull %6) #5
  call void @llvm.memset.p0i8.i64(i8* noundef nonnull align 16 dereferenceable(40000) %6, i8 0, i64 40000, i1 false)
  br label %17

17:                                               ; preds = %15, %21
  %18 = phi i64 [ 1, %15 ], [ %19, %21 ]
  %19 = add nuw nsw i64 %18, 1
  %20 = add nsw i64 %18, -1
  br label %26

21:                                               ; preds = %26
  %22 = icmp eq i64 %19, 99
  br i1 %22, label %23, label %17, !llvm.loop !9

23:                                               ; preds = %21
  call void @llvm.memcpy.p0i8.p0i8.i64(i8* noundef nonnull align 16 dereferenceable(40000) %2, i8* noundef nonnull align 16 dereferenceable(40000) %6, i64 40000, i1 false)
  call void @llvm.lifetime.end.p0i8(i64 40000, i8* nonnull %6) #5
  %24 = add nuw nsw i32 %16, 1
  %25 = icmp eq i32 %24, %12
  br i1 %25, label %14, label %15, !llvm.loop !11

26:                                               ; preds = %17, %26
  %27 = phi i64 [ 1, %17 ], [ %40, %26 ]
  %28 = getelementptr inbounds [100 x [100 x i32]], [100 x [100 x i32]]* %1, i64 0, i64 %18, i64 %27
  %29 = load i32, i32* %28, align 4, !tbaa !5
  %30 = getelementptr inbounds [100 x [100 x i32]], [100 x [100 x i32]]* %5, i64 0, i64 %18, i64 %27
  %31 = load i32, i32* %30, align 4, !tbaa !5
  %32 = add nsw i32 %31, %29
  store i32 %32, i32* %30, align 4, !tbaa !5
  %33 = add nsw i64 %27, -1
  %34 = getelementptr inbounds [100 x [100 x i32]], [100 x [100 x i32]]* %5, i64 0, i64 %20, i64 %33
  %35 = load i32, i32* %34, align 4, !tbaa !5
  %36 = add nsw i32 %35, %29
  store i32 %36, i32* %34, align 4, !tbaa !5
  %37 = getelementptr inbounds [100 x [100 x i32]], [100 x [100 x i32]]* %5, i64 0, i64 %20, i64 %27
  %38 = load i32, i32* %37, align 4, !tbaa !5
  %39 = add nsw i32 %38, %29
  store i32 %39, i32* %37, align 4, !tbaa !5
  %40 = add nuw nsw i64 %27, 1
  %41 = getelementptr inbounds [100 x [100 x i32]], [100 x [100 x i32]]* %5, i64 0, i64 %20, i64 %40
  %42 = load i32, i32* %41, align 4, !tbaa !5
  %43 = add nsw i32 %42, %29
  store i32 %43, i32* %41, align 4, !tbaa !5
  %44 = getelementptr inbounds [100 x [100 x i32]], [100 x [100 x i32]]* %5, i64 0, i64 %18, i64 %33
  %45 = load i32, i32* %44, align 4, !tbaa !5
  %46 = add nsw i32 %45, %29
  store i32 %46, i32* %44, align 4, !tbaa !5
  %47 = load i32, i32* %30, align 4, !tbaa !5
  %48 = add nsw i32 %47, %29
  store i32 %48, i32* %30, align 4, !tbaa !5
  %49 = getelementptr inbounds [100 x [100 x i32]], [100 x [100 x i32]]* %5, i64 0, i64 %18, i64 %40
  %50 = load i32, i32* %49, align 4, !tbaa !5
  %51 = add nsw i32 %50, %29
  store i32 %51, i32* %49, align 4, !tbaa !5
  %52 = getelementptr inbounds [100 x [100 x i32]], [100 x [100 x i32]]* %5, i64 0, i64 %19, i64 %33
  %53 = load i32, i32* %52, align 4, !tbaa !5
  %54 = add nsw i32 %53, %29
  store i32 %54, i32* %52, align 4, !tbaa !5
  %55 = getelementptr inbounds [100 x [100 x i32]], [100 x [100 x i32]]* %5, i64 0, i64 %19, i64 %27
  %56 = load i32, i32* %55, align 4, !tbaa !5
  %57 = add nsw i32 %56, %29
  store i32 %57, i32* %55, align 4, !tbaa !5
  %58 = getelementptr inbounds [100 x [100 x i32]], [100 x [100 x i32]]* %5, i64 0, i64 %19, i64 %40
  %59 = load i32, i32* %58, align 4, !tbaa !5
  %60 = add nsw i32 %59, %29
  store i32 %60, i32* %58, align 4, !tbaa !5
  %61 = icmp eq i64 %40, 99
  br i1 %61, label %21, label %26, !llvm.loop !12

62:                                               ; preds = %14, %65
  %63 = phi i64 [ %69, %65 ], [ 0, %14 ]
  br label %71

64:                                               ; preds = %65
  call void @llvm.lifetime.end.p0i8(i64 4, i8* nonnull %8) #5
  call void @llvm.lifetime.end.p0i8(i64 4, i8* nonnull %7) #5
  call void @llvm.lifetime.end.p0i8(i64 40000, i8* nonnull %2) #5
  ret i32 0

65:                                               ; preds = %71
  %66 = getelementptr inbounds [100 x [100 x i32]], [100 x [100 x i32]]* %1, i64 0, i64 %63, i64 99
  %67 = load i32, i32* %66, align 4, !tbaa !5
  %68 = call i32 (i8*, ...) @printf(i8* nonnull dereferenceable(1) getelementptr inbounds ([4 x i8], [4 x i8]* @.str.2, i64 0, i64 0), i32 %67)
  %69 = add nuw nsw i64 %63, 1
  %70 = icmp eq i64 %69, 100
  br i1 %70, label %64, label %62, !llvm.loop !13

71:                                               ; preds = %62, %71
  %72 = phi i64 [ 0, %62 ], [ %76, %71 ]
  %73 = getelementptr inbounds [100 x [100 x i32]], [100 x [100 x i32]]* %1, i64 0, i64 %63, i64 %72
  %74 = load i32, i32* %73, align 4, !tbaa !5
  %75 = call i32 (i8*, ...) @printf(i8* nonnull dereferenceable(1) getelementptr inbounds ([4 x i8], [4 x i8]* @.str.1, i64 0, i64 0), i32 %74)
  %76 = add nuw nsw i64 %72, 1
  %77 = icmp eq i64 %76, 99
  br i1 %77, label %65, label %71, !llvm.loop !14
}

; Function Attrs: argmemonly mustprogress nofree nosync nounwind willreturn
declare void @llvm.lifetime.start.p0i8(i64 immarg, i8* nocapture) #1

; Function Attrs: argmemonly mustprogress nofree nounwind willreturn writeonly
declare void @llvm.memset.p0i8.i64(i8* nocapture writeonly, i8, i64, i1 immarg) #2

; Function Attrs: nofree nounwind
declare noundef i32 @__isoc99_scanf(i8* nocapture noundef readonly, ...) local_unnamed_addr #3

; Function Attrs: argmemonly mustprogress nofree nosync nounwind willreturn
declare void @llvm.lifetime.end.p0i8(i64 immarg, i8* nocapture) #1

; Function Attrs: nofree nounwind
declare noundef i32 @printf(i8* nocapture noundef readonly, ...) local_unnamed_addr #3

; Function Attrs: argmemonly nofree nounwind willreturn
declare void @llvm.memcpy.p0i8.p0i8.i64(i8* noalias nocapture writeonly, i8* noalias nocapture readonly, i64, i1 immarg) #4


!llvm.module.flags = !{!0, !1, !2, !3}
!llvm.ident = !{!4}

!0 = !{i32 1, !"wchar_size", i32 4}
!1 = !{i32 7, !"PIC Level", i32 2}
!2 = !{i32 7, !"PIE Level", i32 2}
!3 = !{i32 7, !"uwtable", i32 1}
!4 = !{!"clang version 13.0.0"}
!5 = !{!6, !6, i64 0}
!6 = !{!"int", !7, i64 0}
!7 = !{!"omnipotent char", !8, i64 0}
!8 = !{!"Simple C/C++ TBAA"}
!9 = distinct !{!9, !10}
!10 = !{!"llvm.loop.mustprogress"}
!11 = distinct !{!11, !10}
!12 = distinct !{!12, !10}
!13 = distinct !{!13, !10}
!14 = distinct !{!14, !10}
